; ModuleID = '32/238.c'
source_filename = "32/238.c"
target datalayout = "e-m:e-p270:32:32-p271:32:32-p272:64:64-i64:64-f80:128-n8:16:32:64-S128"
target triple = "x86_64-pc-linux-gnu"

@.str = private unnamed_addr constant [3 x i8] c"%d\00", align 1
@.str.1 = private unnamed_addr constant [4 x i8] c"%s\0A\00", align 1
@.str.2 = private unnamed_addr constant [2 x i8] c"\0A\00", align 1

; Function Attrs: noinline nounwind uwtable
define dso_local void @main() #0 {
  %1 = alloca i32, align 4
  %2 = alloca i32, align 4
  %3 = alloca i32, align 4
  %4 = alloca i32, align 4
  %5 = alloca i32, align 4
  %6 = alloca i32, align 4
  %7 = alloca i32, align 4
  %8 = alloca [100 x i8], align 16
  %9 = alloca [100 x i8], align 16
  %10 = alloca [100 x i8], align 16
  %11 = call i32 (i8*, ...) @__isoc99_scanf(i8* getelementptr inbounds ([3 x i8], [3 x i8]* @.str, i64 0, i64 0), i32* %1)
  store i32 1, i32* %4, align 4
  br label %12

12:                                               ; preds = %190, %0
  %13 = load i32, i32* %4, align 4
  %14 = load i32, i32* %1, align 4
  %15 = icmp sle i32 %13, %14
  br i1 %15, label %16, label %193

16:                                               ; preds = %12
  %17 = getelementptr inbounds [100 x i8], [100 x i8]* %8, i64 0, i64 0
  %18 = call i32 (i8*, ...) @__isoc99_scanf(i8* getelementptr inbounds ([4 x i8], [4 x i8]* @.str.1, i64 0, i64 0), i8* %17)
  %19 = getelementptr inbounds [100 x i8], [100 x i8]* %9, i64 0, i64 0
  %20 = call i32 (i8*, ...) @__isoc99_scanf(i8* getelementptr inbounds ([4 x i8], [4 x i8]* @.str.1, i64 0, i64 0), i8* %19)
  %21 = getelementptr inbounds [100 x i8], [100 x i8]* %8, i64 0, i64 0
  %22 = call i64 @strlen(i8* %21) #3
  %23 = trunc i64 %22 to i32
  store i32 %23, i32* %2, align 4
  %24 = getelementptr inbounds [100 x i8], [100 x i8]* %9, i64 0, i64 0
  %25 = call i64 @strlen(i8* %24) #3
  %26 = trunc i64 %25 to i32
  store i32 %26, i32* %3, align 4
  store i32 1, i32* %5, align 4
  br label %27

27:                                               ; preds = %109, %16
  %28 = load i32, i32* %5, align 4
  %29 = load i32, i32* %3, align 4
  %30 = icmp sle i32 %28, %29
  br i1 %30, label %31, label %112

31:                                               ; preds = %27
  %32 = load i32, i32* %2, align 4
  %33 = load i32, i32* %5, align 4
  %34 = sub nsw i32 %32, %33
  %35 = sext i32 %34 to i64
  %36 = getelementptr inbounds [100 x i8], [100 x i8]* %8, i64 0, i64 %35
  %37 = load i8, i8* %36, align 1
  %38 = sext i8 %37 to i32
  %39 = load i32, i32* %3, align 4
  %40 = load i32, i32* %5, align 4
  %41 = sub nsw i32 %39, %40
  %42 = sext i32 %41 to i64
  %43 = getelementptr inbounds [100 x i8], [100 x i8]* %9, i64 0, i64 %42
  %44 = load i8, i8* %43, align 1
  %45 = sext i8 %44 to i32
  %46 = icmp sge i32 %38, %45
  br i1 %46, label %47, label %69

47:                                               ; preds = %31
  %48 = load i32, i32* %2, align 4
  %49 = load i32, i32* %5, align 4
  %50 = sub nsw i32 %48, %49
  %51 = sext i32 %50 to i64
  %52 = getelementptr inbounds [100 x i8], [100 x i8]* %8, i64 0, i64 %51
  %53 = load i8, i8* %52, align 1
  %54 = sext i8 %53 to i32
  %55 = load i32, i32* %3, align 4
  %56 = load i32, i32* %5, align 4
  %57 = sub nsw i32 %55, %56
  %58 = sext i32 %57 to i64
  %59 = getelementptr inbounds [100 x i8], [100 x i8]* %9, i64 0, i64 %58
  %60 = load i8, i8* %59, align 1
  %61 = sext i8 %60 to i32
  %62 = sub nsw i32 %54, %61
  %63 = trunc i32 %62 to i8
  %64 = load i32, i32* %2, align 4
  %65 = load i32, i32* %5, align 4
  %66 = sub nsw i32 %64, %65
  %67 = sext i32 %66 to i64
  %68 = getelementptr inbounds [100 x i8], [100 x i8]* %10, i64 0, i64 %67
  store i8 %63, i8* %68, align 1
  br label %108

69:                                               ; preds = %31
  %70 = load i32, i32* %2, align 4
  %71 = load i32, i32* %5, align 4
  %72 = sub nsw i32 %70, %71
  %73 = sext i32 %72 to i64
  %74 = getelementptr inbounds [100 x i8], [100 x i8]* %8, i64 0, i64 %73
  %75 = load i8, i8* %74, align 1
  %76 = sext i8 %75 to i32
  %77 = load i32, i32* %3, align 4
  %78 = load i32, i32* %5, align 4
  %79 = sub nsw i32 %77, %78
  %80 = sext i32 %79 to i64
  %81 = getelementptr inbounds [100 x i8], [100 x i8]* %9, i64 0, i64 %80
  %82 = load i8, i8* %81, align 1
  %83 = sext i8 %82 to i32
  %84 = sub nsw i32 %76, %83
  %85 = add nsw i32 %84, 10
  %86 = trunc i32 %85 to i8
  %87 = load i32, i32* %2, align 4
  %88 = load i32, i32* %5, align 4
  %89 = sub nsw i32 %87, %88
  %90 = sext i32 %89 to i64
  %91 = getelementptr inbounds [100 x i8], [100 x i8]* %10, i64 0, i64 %90
  store i8 %86, i8* %91, align 1
  %92 = load i32, i32* %2, align 4
  %93 = load i32, i32* %5, align 4
  %94 = sub nsw i32 %92, %93
  %95 = sub nsw i32 %94, 1
  %96 = sext i32 %95 to i64
  %97 = getelementptr inbounds [100 x i8], [100 x i8]* %8, i64 0, i64 %96
  %98 = load i8, i8* %97, align 1
  %99 = sext i8 %98 to i32
  %100 = sub nsw i32 %99, 1
  %101 = trunc i32 %100 to i8
  %102 = load i32, i32* %2, align 4
  %103 = load i32, i32* %5, align 4
  %104 = sub nsw i32 %102, %103
  %105 = sub nsw i32 %104, 1
  %106 = sext i32 %105 to i64
  %107 = getelementptr inbounds [100 x i8], [100 x i8]* %8, i64 0, i64 %106
  store i8 %101, i8* %107, align 1
  br label %108

108:                                              ; preds = %69, %47
  br label %109

109:                                              ; preds = %108
  %110 = load i32, i32* %5, align 4
  %111 = add nsw i32 %110, 1
  store i32 %111, i32* %5, align 4
  br label %27

112:                                              ; preds = %27
  %113 = load i32, i32* %2, align 4
  %114 = load i32, i32* %5, align 4
  %115 = sub nsw i32 %113, %114
  %116 = sext i32 %115 to i64
  %117 = getelementptr inbounds [100 x i8], [100 x i8]* %8, i64 0, i64 %116
  %118 = load i8, i8* %117, align 1
  %119 = sext i8 %118 to i32
  %120 = icmp slt i32 %119, 0
  br i1 %120, label %121, label %152

121:                                              ; preds = %112
  %122 = load i32, i32* %2, align 4
  %123 = load i32, i32* %5, align 4
  %124 = sub nsw i32 %122, %123
  %125 = sext i32 %124 to i64
  %126 = getelementptr inbounds [100 x i8], [100 x i8]* %8, i64 0, i64 %125
  %127 = load i8, i8* %126, align 1
  %128 = sext i8 %127 to i32
  %129 = add nsw i32 %128, 10
  %130 = trunc i32 %129 to i8
  %131 = load i32, i32* %2, align 4
  %132 = load i32, i32* %5, align 4
  %133 = sub nsw i32 %131, %132
  %134 = sext i32 %133 to i64
  %135 = getelementptr inbounds [100 x i8], [100 x i8]* %8, i64 0, i64 %134
  store i8 %130, i8* %135, align 1
  %136 = load i32, i32* %2, align 4
  %137 = load i32, i32* %5, align 4
  %138 = sub nsw i32 %136, %137
  %139 = sub nsw i32 %138, 1
  %140 = sext i32 %139 to i64
  %141 = getelementptr inbounds [100 x i8], [100 x i8]* %8, i64 0, i64 %140
  %142 = load i8, i8* %141, align 1
  %143 = sext i8 %142 to i32
  %144 = sub nsw i32 %143, 1
  %145 = trunc i32 %144 to i8
  %146 = load i32, i32* %2, align 4
  %147 = load i32, i32* %5, align 4
  %148 = sub nsw i32 %146, %147
  %149 = sub nsw i32 %148, 1
  %150 = sext i32 %149 to i64
  %151 = getelementptr inbounds [100 x i8], [100 x i8]* %8, i64 0, i64 %150
  store i8 %145, i8* %151, align 1
  br label %152

152:                                              ; preds = %121, %112
  %153 = load i32, i32* %2, align 4
  %154 = load i32, i32* %5, align 4
  %155 = sub nsw i32 %153, %154
  store i32 %155, i32* %6, align 4
  br label %156

156:                                              ; preds = %170, %152
  %157 = load i32, i32* %6, align 4
  %158 = icmp sge i32 %157, 0
  br i1 %158, label %159, label %173

159:                                              ; preds = %156
  %160 = load i32, i32* %6, align 4
  %161 = sext i32 %160 to i64
  %162 = getelementptr inbounds [100 x i8], [100 x i8]* %8, i64 0, i64 %161
  %163 = load i8, i8* %162, align 1
  %164 = sext i8 %163 to i32
  %165 = sub nsw i32 %164, 48
  %166 = trunc i32 %165 to i8
  %167 = load i32, i32* %6, align 4
  %168 = sext i32 %167 to i64
  %169 = getelementptr inbounds [100 x i8], [100 x i8]* %10, i64 0, i64 %168
  store i8 %166, i8* %169, align 1
  br label %170

170:                                              ; preds = %159
  %171 = load i32, i32* %6, align 4
  %172 = add nsw i32 %171, -1
  store i32 %172, i32* %6, align 4
  br label %156

173:                                              ; preds = %156
  store i32 0, i32* %7, align 4
  br label %174

174:                                              ; preds = %185, %173
  %175 = load i32, i32* %7, align 4
  %176 = load i32, i32* %2, align 4
  %177 = icmp slt i32 %175, %176
  br i1 %177, label %178, label %188

178:                                              ; preds = %174
  %179 = load i32, i32* %7, align 4
  %180 = sext i32 %179 to i64
  %181 = getelementptr inbounds [100 x i8], [100 x i8]* %10, i64 0, i64 %180
  %182 = load i8, i8* %181, align 1
  %183 = sext i8 %182 to i32
  %184 = call i32 (i8*, ...) @printf(i8* getelementptr inbounds ([3 x i8], [3 x i8]* @.str, i64 0, i64 0), i32 %183)
  br label %185

185:                                              ; preds = %178
  %186 = load i32, i32* %7, align 4
  %187 = add nsw i32 %186, 1
  store i32 %187, i32* %7, align 4
  br label %174

188:                                              ; preds = %174
  %189 = call i32 (i8*, ...) @printf(i8* getelementptr inbounds ([2 x i8], [2 x i8]* @.str.2, i64 0, i64 0))
  br label %190

190:                                              ; preds = %188
  %191 = load i32, i32* %4, align 4
  %192 = add nsw i32 %191, 1
  store i32 %192, i32* %4, align 4
  br label %12

193:                                              ; preds = %12
  ret void
}

declare dso_local i32 @__isoc99_scanf(i8*, ...) #1

; Function Attrs: nounwind readonly
declare dso_local i64 @strlen(i8*) #2

declare dso_local i32 @printf(i8*, ...) #1


!llvm.module.flags = !{!0}
!llvm.ident = !{!1}

!0 = !{i32 1, !"wchar_size", i32 4}
!1 = !{!"clang version 10.0.0-4ubuntu1 "}
